Certificate:
    Data:
        Version: 3 (0x2)
        Serial Number:
            98:ed:96:f5:a9:7a:60:af
        Signature Algorithm: sha1WithRSAEncryption
        Issuer: C=CN, ST=FJ, O=Newland, OU=Payment, CN=SSL Testtool CA/emailAddress=none@none.com
        Validity
            Not Before: Jul  8 02:19:09 2014 GMT
            Not After : Jul  5 02:19:09 2024 GMT
        Subject: C=CN, ST=FJ, O=Newland, OU=Payment, CN=SSL Client A/emailAddress=none@none.com
        Subject Public Key Info:
            Public Key Algorithm: rsaEncryption
            RSA Public Key: (1024 bit)
                Modulus (1024 bit):
                    00:dc:da:d9:c0:a0:1d:9a:0f:c1:65:66:fa:ac:ac:
                    bd:21:2b:a1:68:0c:0a:35:a5:e5:bb:d3:f4:1a:b7:
                    39:e4:54:f3:44:22:20:5f:0e:35:d0:80:aa:ae:22:
                    d9:61:ad:5f:cd:0f:1d:04:41:a7:f1:4d:58:8b:20:
                    a6:ca:07:6d:1a:2b:e8:6e:42:3d:d9:31:ec:44:e9:
                    ca:32:54:90:cf:f5:7f:c7:27:1c:f9:41:4a:a8:1a:
                    20:76:c0:fa:d7:44:c1:aa:07:ce:6a:fa:d4:8d:b9:
                    14:7b:61:82:48:c2:81:ce:6d:e6:81:bf:18:f2:c3:
                    8a:a5:19:1f:3c:75:4b:eb:8f
                Exponent: 65537 (0x10001)
        X509v3 extensions:
            X509v3 Basic Constraints: 
                CA:FALSE
            Netscape Comment: 
                OpenSSL Generated Certificate
            X509v3 Subject Key Identifier: 
                66:54:4A:BC:F5:AA:62:1B:22:48:09:84:74:76:7E:5D:4A:28:B0:24
            X509v3 Authority Key Identifier: 
                keyid:27:62:86:8E:1E:6F:52:D1:06:20:55:6F:8F:4E:54:9C:81:D5:FC:4D

    Signature Algorithm: sha1WithRSAEncryption
        4e:96:03:99:8d:67:93:a4:d5:78:ff:3a:5e:f0:46:59:82:a0:
        0e:8e:d9:0d:cb:4e:1d:17:53:df:ca:34:3f:c6:5c:91:b4:9a:
        64:d1:45:41:fc:4f:6a:09:f0:30:c5:fe:83:ae:8d:88:11:37:
        be:6c:ff:ae:1c:20:de:d6:2a:45:15:df:62:e4:05:c1:38:83:
        03:c0:5b:7f:25:6f:7a:33:15:94:fe:4a:60:d9:ed:d2:26:c9:
        d2:78:36:93:a7:b3:b8:0b:59:d9:64:c0:17:9f:79:8d:e6:33:
        30:58:ff:45:cc:db:da:99:2a:fd:a6:a1:12:c1:4b:78:ef:cb:
        30:32
-----BEGIN CERTIFICATE-----
MIIC4jCCAkugAwIBAgIJAJjtlvWpemCvMA0GCSqGSIb3DQEBBQUAMHYxCzAJBgNV
BAYTAkNOMQswCQYDVQQIEwJGSjEQMA4GA1UEChMHTmV3bGFuZDEQMA4GA1UECxMH
UGF5bWVudDEYMBYGA1UEAxMPU1NMIFRlc3R0b29sIENBMRwwGgYJKoZIhvcNAQkB
Fg1ub25lQG5vbmUuY29tMB4XDTE0MDcwODAyMTkwOVoXDTI0MDcwNTAyMTkwOVow
czELMAkGA1UEBhMCQ04xCzAJBgNVBAgTAkZKMRAwDgYDVQQKEwdOZXdsYW5kMRAw
DgYDVQQLEwdQYXltZW50MRUwEwYDVQQDEwxTU0wgQ2xpZW50IEExHDAaBgkqhkiG
9w0BCQEWDW5vbmVAbm9uZS5jb20wgZ8wDQYJKoZIhvcNAQEBBQADgY0AMIGJAoGB
ANza2cCgHZoPwWVm+qysvSEroWgMCjWl5bvT9Bq3OeRU80QiIF8ONdCAqq4i2WGt
X80PHQRBp/FNWIsgpsoHbRor6G5CPdkx7ETpyjJUkM/1f8cnHPlBSqgaIHbA+tdE
waoHzmr61I25FHthgkjCgc5t5oG/GPLDiqUZHzx1S+uPAgMBAAGjezB5MAkGA1Ud
EwQCMAAwLAYJYIZIAYb4QgENBB8WHU9wZW5TU0wgR2VuZXJhdGVkIENlcnRpZmlj
YXRlMB0GA1UdDgQWBBRmVEq89apiGyJICYR0dn5dSiiwJDAfBgNVHSMEGDAWgBQn
YoaOHm9S0QYgVW+PTlScgdX8TTANBgkqhkiG9w0BAQUFAAOBgQBOlgOZjWeTpNV4
/zpe8EZZgqAOjtkNy04dF1PfyjQ/xlyRtJpk0UVB/E9qCfAwxf6Dro2IETe+bP+u
HCDe1ipFFd9i5AXBOIMDwFt/JW96MxWU/kpg2e3SJsnSeDaTp7O4C1nZZMAXn3mN
5jMwWP9FzNvamSr9pqESwUt478swMg==
-----END CERTIFICATE-----
