Certificate:
    Data:
        Version: 3 (0x2)
        Serial Number:
            98:ed:96:f5:a9:7a:60:ae
        Signature Algorithm: sha1WithRSAEncryption
        Issuer: C=CN, ST=FJ, O=Newland, OU=Payment, CN=SSL Testtool CA/emailAddress=none@none.com
        Validity
            Not Before: Jul  8 02:16:35 2014 GMT
            Not After : Jul  5 02:16:35 2024 GMT
        Subject: C=CN, ST=FJ, O=Newland, OU=Payment, CN=SSL Testtool CA/emailAddress=none@none.com
        Subject Public Key Info:
            Public Key Algorithm: rsaEncryption
            RSA Public Key: (1024 bit)
                Modulus (1024 bit):
                    00:e1:da:ae:f2:4f:b0:25:16:92:40:3b:53:e8:b8:
                    a8:a4:96:22:d6:f7:23:9a:14:44:8a:aa:8e:fb:99:
                    55:25:2d:d5:ca:32:c7:3e:d0:9d:7f:bb:24:cd:98:
                    4f:f3:59:1a:7f:82:1b:09:fe:73:9f:f3:dd:8e:44:
                    88:4c:a9:4d:a6:4e:99:8c:7b:72:96:22:a1:68:0f:
                    4d:6b:91:a1:04:6a:ed:82:53:5f:e9:e7:36:33:8c:
                    c4:74:76:2d:f9:c4:94:34:09:76:d6:0b:f1:e8:64:
                    ec:4c:2a:a4:4e:72:33:17:28:35:dd:29:50:c7:7e:
                    f6:4c:e2:09:04:e3:8e:07:11
                Exponent: 65537 (0x10001)
        X509v3 extensions:
            X509v3 Subject Key Identifier: 
                27:62:86:8E:1E:6F:52:D1:06:20:55:6F:8F:4E:54:9C:81:D5:FC:4D
            X509v3 Authority Key Identifier: 
                keyid:27:62:86:8E:1E:6F:52:D1:06:20:55:6F:8F:4E:54:9C:81:D5:FC:4D
                DirName:/C=CN/ST=FJ/O=Newland/OU=Payment/CN=SSL Testtool CA/emailAddress=none@none.com
                serial:98:ED:96:F5:A9:7A:60:AE

            X509v3 Basic Constraints: 
                CA:TRUE
    Signature Algorithm: sha1WithRSAEncryption
        a8:7a:ea:d8:b3:54:a0:59:e1:35:a7:a1:ef:70:b5:cc:86:ca:
        6b:f5:37:f8:d6:dd:70:ac:7d:c1:43:fa:d7:ec:76:ca:0d:55:
        d4:18:ad:09:74:17:ac:ea:a9:6a:01:69:df:58:b5:58:af:60:
        5c:75:6c:ab:7a:fc:78:e6:b7:60:92:1f:0a:5e:ab:d2:4c:a8:
        5b:eb:71:78:a9:a6:b6:20:85:d8:3d:cc:a5:97:0e:c8:7c:e1:
        76:23:75:96:61:f6:41:e5:c2:86:1a:59:e7:90:b7:a7:2a:a4:
        fd:e7:97:93:fe:7d:90:4d:46:16:d1:37:14:88:02:cd:ab:99:
        6c:b4
-----BEGIN CERTIFICATE-----
MIIDRjCCAq+gAwIBAgIJAJjtlvWpemCuMA0GCSqGSIb3DQEBBQUAMHYxCzAJBgNV
BAYTAkNOMQswCQYDVQQIEwJGSjEQMA4GA1UEChMHTmV3bGFuZDEQMA4GA1UECxMH
UGF5bWVudDEYMBYGA1UEAxMPU1NMIFRlc3R0b29sIENBMRwwGgYJKoZIhvcNAQkB
Fg1ub25lQG5vbmUuY29tMB4XDTE0MDcwODAyMTYzNVoXDTI0MDcwNTAyMTYzNVow
djELMAkGA1UEBhMCQ04xCzAJBgNVBAgTAkZKMRAwDgYDVQQKEwdOZXdsYW5kMRAw
DgYDVQQLEwdQYXltZW50MRgwFgYDVQQDEw9TU0wgVGVzdHRvb2wgQ0ExHDAaBgkq
hkiG9w0BCQEWDW5vbmVAbm9uZS5jb20wgZ8wDQYJKoZIhvcNAQEBBQADgY0AMIGJ
AoGBAOHarvJPsCUWkkA7U+i4qKSWItb3I5oURIqqjvuZVSUt1coyxz7QnX+7JM2Y
T/NZGn+CGwn+c5/z3Y5EiEypTaZOmYx7cpYioWgPTWuRoQRq7YJTX+nnNjOMxHR2
LfnElDQJdtYL8ehk7EwqpE5yMxcoNd0pUMd+9kziCQTjjgcRAgMBAAGjgdswgdgw
HQYDVR0OBBYEFCdiho4eb1LRBiBVb49OVJyB1fxNMIGoBgNVHSMEgaAwgZ2AFCdi
ho4eb1LRBiBVb49OVJyB1fxNoXqkeDB2MQswCQYDVQQGEwJDTjELMAkGA1UECBMC
RkoxEDAOBgNVBAoTB05ld2xhbmQxEDAOBgNVBAsTB1BheW1lbnQxGDAWBgNVBAMT
D1NTTCBUZXN0dG9vbCBDQTEcMBoGCSqGSIb3DQEJARYNbm9uZUBub25lLmNvbYIJ
AJjtlvWpemCuMAwGA1UdEwQFMAMBAf8wDQYJKoZIhvcNAQEFBQADgYEAqHrq2LNU
oFnhNaeh73C1zIbKa/U3+NbdcKx9wUP61+x2yg1V1BitCXQXrOqpagFp31i1WK9g
XHVsq3r8eOa3YJIfCl6r0kyoW+txeKmmtiCF2D3MpZcOyHzhdiN1lmH2QeXChhpZ
55C3pyqk/eeXk/59kE1GFtE3FIgCzauZbLQ=
-----END CERTIFICATE-----
