Certificate:
    Data:
        Version: 3 (0x2)
        Serial Number:
            98:ed:96:f5:a9:7a:60:b0
        Signature Algorithm: sha1WithRSAEncryption
        Issuer: C=CN, ST=FJ, O=Newland, OU=Payment, CN=SSL Testtool CA/emailAddress=none@none.com
        Validity
            Not Before: Jul  8 02:19:30 2014 GMT
            Not After : Jul  5 02:19:30 2024 GMT
        Subject: C=CN, ST=FJ, O=Newland, OU=Payment, CN=SSL Server A/emailAddress=none@none.com
        Subject Public Key Info:
            Public Key Algorithm: rsaEncryption
            RSA Public Key: (1024 bit)
                Modulus (1024 bit):
                    00:ac:95:a1:b7:20:b0:a1:46:9f:16:88:13:b9:5a:
                    ba:94:52:e8:53:58:9b:a6:be:0a:07:6b:36:8f:3b:
                    20:01:31:25:c6:a3:38:9c:1a:b7:8a:52:fc:29:fe:
                    ec:27:20:2a:aa:1f:cb:47:5a:74:30:d5:14:a4:98:
                    b7:2d:a9:53:95:a0:57:88:cc:c5:4f:c3:17:0c:5e:
                    8a:b1:3d:a6:26:34:27:65:df:ed:67:0a:d3:35:77:
                    a0:1d:93:31:7c:4a:98:27:7f:ec:3a:67:d3:25:f5:
                    84:07:06:13:d6:a4:dc:0d:46:c7:eb:42:0e:f2:77:
                    56:e7:6a:db:cd:b6:19:5f:7d
                Exponent: 65537 (0x10001)
        X509v3 extensions:
            X509v3 Basic Constraints: 
                CA:FALSE
            Netscape Comment: 
                OpenSSL Generated Certificate
            X509v3 Subject Key Identifier: 
                26:6D:9B:45:14:1B:60:1E:D4:49:AF:95:83:28:61:3B:BD:0E:DD:03
            X509v3 Authority Key Identifier: 
                keyid:27:62:86:8E:1E:6F:52:D1:06:20:55:6F:8F:4E:54:9C:81:D5:FC:4D

    Signature Algorithm: sha1WithRSAEncryption
        91:13:e8:09:8f:7c:32:4e:13:20:fc:60:f2:cf:3e:9d:6e:19:
        aa:b8:48:a8:a3:58:e1:57:df:a6:5a:79:85:02:fa:d6:d2:1d:
        68:c3:e0:4b:ed:13:92:58:f6:15:76:fa:3f:a0:11:0e:1d:37:
        14:c5:01:f4:b5:23:9d:f9:89:37:7c:6a:21:a6:f4:e3:d8:1f:
        50:5f:de:a1:fc:1c:b5:07:c7:18:9a:f3:8f:7c:7b:48:95:88:
        65:8b:65:f3:a6:9f:cf:b7:6c:3c:b2:7e:ad:fe:53:54:46:12:
        33:af:62:1a:29:d0:5e:fc:05:d3:89:58:7f:13:b8:1b:6e:a7:
        47:b1
-----BEGIN CERTIFICATE-----
MIIC4jCCAkugAwIBAgIJAJjtlvWpemCwMA0GCSqGSIb3DQEBBQUAMHYxCzAJBgNV
BAYTAkNOMQswCQYDVQQIEwJGSjEQMA4GA1UEChMHTmV3bGFuZDEQMA4GA1UECxMH
UGF5bWVudDEYMBYGA1UEAxMPU1NMIFRlc3R0b29sIENBMRwwGgYJKoZIhvcNAQkB
Fg1ub25lQG5vbmUuY29tMB4XDTE0MDcwODAyMTkzMFoXDTI0MDcwNTAyMTkzMFow
czELMAkGA1UEBhMCQ04xCzAJBgNVBAgTAkZKMRAwDgYDVQQKEwdOZXdsYW5kMRAw
DgYDVQQLEwdQYXltZW50MRUwEwYDVQQDEwxTU0wgU2VydmVyIEExHDAaBgkqhkiG
9w0BCQEWDW5vbmVAbm9uZS5jb20wgZ8wDQYJKoZIhvcNAQEBBQADgY0AMIGJAoGB
AKyVobcgsKFGnxaIE7laupRS6FNYm6a+CgdrNo87IAExJcajOJwat4pS/Cn+7Ccg
Kqofy0dadDDVFKSYty2pU5WgV4jMxU/DFwxeirE9piY0J2Xf7WcK0zV3oB2TMXxK
mCd/7Dpn0yX1hAcGE9ak3A1Gx+tCDvJ3Vudq2822GV99AgMBAAGjezB5MAkGA1Ud
EwQCMAAwLAYJYIZIAYb4QgENBB8WHU9wZW5TU0wgR2VuZXJhdGVkIENlcnRpZmlj
YXRlMB0GA1UdDgQWBBQmbZtFFBtgHtRJr5WDKGE7vQ7dAzAfBgNVHSMEGDAWgBQn
YoaOHm9S0QYgVW+PTlScgdX8TTANBgkqhkiG9w0BAQUFAAOBgQCRE+gJj3wyThMg
/GDyzz6dbhmquEioo1jhV9+mWnmFAvrW0h1ow+BL7ROSWPYVdvo/oBEOHTcUxQH0
tSOd+Yk3fGohpvTj2B9QX96h/By1B8cYmvOPfHtIlYhli2Xzpp/Pt2w8sn6t/lNU
RhIzr2IaKdBe/AXTiVh/E7gbbqdHsQ==
-----END CERTIFICATE-----
